target datalayout = "e-m:e-p270:32:32-p271:32:32-p272:64:64-i64:64-i128:128-f80:128-n8:16:32:64-S128"
target triple = "x86_64-pc-linux-gnu"

%"class.cv::Mat" = type { i32, i32, i32, i32, ptr, ptr, ptr, ptr, ptr, ptr, %"struct.cv::MatSize", %"struct.cv::MatStep" }
%"struct.cv::MatSize" = type { ptr }
%"struct.cv::MatStep" = type { ptr, [2 x i64] }

; Function Attrs: inlinehint mustprogress nounwind uwtable
define linkonce_odr hidden noundef nonnull align 4 dereferenceable(4) ptr @_ZN2cv3Mat2atIfEERT_ii(ptr noundef nonnull align 8 dereferenceable(96) %0, i32 noundef %1, i32 noundef %2) #9 comdat align 2 {
  %4 = alloca ptr, align 8
  %5 = alloca i32, align 4
  %6 = alloca i32, align 4
  store ptr %0, ptr %4, align 8, !tbaa !37
  store i32 %1, ptr %5, align 4, !tbaa !4
  store i32 %2, ptr %6, align 4, !tbaa !4
  %7 = load ptr, ptr %4, align 8
  %8 = getelementptr inbounds nuw %"class.cv::Mat", ptr %7, i32 0, i32 4
  %9 = load ptr, ptr %8, align 8, !tbaa !60
  %10 = getelementptr inbounds nuw %"class.cv::Mat", ptr %7, i32 0, i32 11
  %11 = getelementptr inbounds nuw %"struct.cv::MatStep", ptr %10, i32 0, i32 0
  %12 = load ptr, ptr %11, align 8, !tbaa !61
  %13 = getelementptr inbounds i64, ptr %12, i64 0
  %14 = load i64, ptr %13, align 8, !tbaa !62
  %15 = load i32, ptr %5, align 4, !tbaa !4
  %16 = sext i32 %15 to i64
  %17 = mul i64 %14, %16
  %18 = getelementptr inbounds nuw i8, ptr %9, i64 %17
  %19 = load i32, ptr %6, align 4, !tbaa !4
  %20 = sext i32 %19 to i64
  %21 = getelementptr inbounds float, ptr %18, i64 %20
  ret ptr %21
}

; Function Attrs: mustprogress uwtable
define hidden void @_Z10update_mapRiRN2cv3MatES2_(ptr noundef nonnull align 4 dereferenceable(4) %0, ptr noundef nonnull align 8 dereferenceable(96) %1, ptr noundef nonnull align 8 dereferenceable(96) %2) #7 {
  %4 = alloca ptr, align 8
  %5 = alloca ptr, align 8
  %6 = alloca ptr, align 8
  %7 = alloca i32, align 4
  %8 = alloca i32, align 4
  %9 = alloca i32, align 4
  store ptr %0, ptr %4, align 8, !tbaa !45
  store ptr %1, ptr %5, align 8, !tbaa !37
  store ptr %2, ptr %6, align 8, !tbaa !37
  call void @llvm.lifetime.start.p0(i64 4, ptr %7) #3
  store i32 0, ptr %7, align 4, !tbaa !4
  br label %10

10:                                               ; preds = %162, %3
  %11 = load i32, ptr %7, align 4, !tbaa !4
  %12 = load ptr, ptr %5, align 8, !tbaa !37
  %13 = getelementptr inbounds nuw %"class.cv::Mat", ptr %12, i32 0, i32 2
  %14 = load i32, ptr %13, align 8, !tbaa !46
  %15 = icmp slt i32 %11, %14
  br i1 %15, label %17, label %16

16:                                               ; preds = %10
  store i32 2, ptr %8, align 4
  call void @llvm.lifetime.end.p0(i64 4, ptr %7) #3
  br label %165

17:                                               ; preds = %10
  call void @llvm.lifetime.start.p0(i64 4, ptr %9) #3
  store i32 0, ptr %9, align 4, !tbaa !4
  br label %18

18:                                               ; preds = %158, %17
  %19 = load i32, ptr %9, align 4, !tbaa !4
  %20 = load ptr, ptr %5, align 8, !tbaa !37
  %21 = getelementptr inbounds nuw %"class.cv::Mat", ptr %20, i32 0, i32 3
  %22 = load i32, ptr %21, align 4, !tbaa !47
  %23 = icmp slt i32 %19, %22
  br i1 %23, label %25, label %24

24:                                               ; preds = %18
  store i32 5, ptr %8, align 4
  call void @llvm.lifetime.end.p0(i64 4, ptr %9) #3
  br label %161

25:                                               ; preds = %18
  %26 = load ptr, ptr %4, align 8, !tbaa !45
  %27 = load i32, ptr %26, align 4, !tbaa !4
  switch i32 %27, label %156 [
    i32 0, label %28
    i32 1, label %101
    i32 2, label %118
    i32 3, label %135
  ]

28:                                               ; preds = %25
  %29 = load i32, ptr %9, align 4, !tbaa !4
  %30 = sitofp i32 %29 to double
  %31 = load ptr, ptr %5, align 8, !tbaa !37
  %32 = getelementptr inbounds nuw %"class.cv::Mat", ptr %31, i32 0, i32 3
  %33 = load i32, ptr %32, align 4, !tbaa !47
  %34 = sitofp i32 %33 to double
  %35 = fmul double %34, 2.500000e-01
  %36 = fcmp ogt double %30, %35
  br i1 %36, label %37, label %91

37:                                               ; preds = %28
  %38 = load i32, ptr %9, align 4, !tbaa !4
  %39 = sitofp i32 %38 to double
  %40 = load ptr, ptr %5, align 8, !tbaa !37
  %41 = getelementptr inbounds nuw %"class.cv::Mat", ptr %40, i32 0, i32 3
  %42 = load i32, ptr %41, align 4, !tbaa !47
  %43 = sitofp i32 %42 to double
  %44 = fmul double %43, 7.500000e-01
  %45 = fcmp olt double %39, %44
  br i1 %45, label %46, label %91

46:                                               ; preds = %37
  %47 = load i32, ptr %7, align 4, !tbaa !4
  %48 = sitofp i32 %47 to double
  %49 = load ptr, ptr %5, align 8, !tbaa !37
  %50 = getelementptr inbounds nuw %"class.cv::Mat", ptr %49, i32 0, i32 2
  %51 = load i32, ptr %50, align 8, !tbaa !46
  %52 = sitofp i32 %51 to double
  %53 = fmul double %52, 2.500000e-01
  %54 = fcmp ogt double %48, %53
  br i1 %54, label %55, label %91

55:                                               ; preds = %46
  %56 = load i32, ptr %7, align 4, !tbaa !4
  %57 = sitofp i32 %56 to double
  %58 = load ptr, ptr %5, align 8, !tbaa !37
  %59 = getelementptr inbounds nuw %"class.cv::Mat", ptr %58, i32 0, i32 2
  %60 = load i32, ptr %59, align 8, !tbaa !46
  %61 = sitofp i32 %60 to double
  %62 = fmul double %61, 7.500000e-01
  %63 = fcmp olt double %57, %62
  br i1 %63, label %64, label %91

64:                                               ; preds = %55
  %65 = load i32, ptr %9, align 4, !tbaa !4
  %66 = sitofp i32 %65 to float
  %67 = load ptr, ptr %5, align 8, !tbaa !37
  %68 = getelementptr inbounds nuw %"class.cv::Mat", ptr %67, i32 0, i32 3
  %69 = load i32, ptr %68, align 4, !tbaa !47
  %70 = sitofp i32 %69 to float
  %71 = fneg float %70
  %72 = call float @llvm.fmuladd.f32(float %71, float 2.500000e-01, float %66)
  %73 = call float @llvm.fmuladd.f32(float 2.000000e+00, float %72, float 5.000000e-01)
  %74 = load ptr, ptr %5, align 8, !tbaa !37
  %75 = load i32, ptr %7, align 4, !tbaa !4
  %76 = load i32, ptr %9, align 4, !tbaa !4
  %77 = call noundef nonnull align 4 dereferenceable(4) ptr @_ZN2cv3Mat2atIfEERT_ii(ptr noundef nonnull align 8 dereferenceable(96) %74, i32 noundef %75, i32 noundef %76)
  store float %73, ptr %77, align 4, !tbaa !48
  %78 = load i32, ptr %7, align 4, !tbaa !4
  %79 = sitofp i32 %78 to float
  %80 = load ptr, ptr %5, align 8, !tbaa !37
  %81 = getelementptr inbounds nuw %"class.cv::Mat", ptr %80, i32 0, i32 2
  %82 = load i32, ptr %81, align 8, !tbaa !46
  %83 = sitofp i32 %82 to float
  %84 = fneg float %83
  %85 = call float @llvm.fmuladd.f32(float %84, float 2.500000e-01, float %79)
  %86 = call float @llvm.fmuladd.f32(float 2.000000e+00, float %85, float 5.000000e-01)
  %87 = load ptr, ptr %6, align 8, !tbaa !37
  %88 = load i32, ptr %7, align 4, !tbaa !4
  %89 = load i32, ptr %9, align 4, !tbaa !4
  %90 = call noundef nonnull align 4 dereferenceable(4) ptr @_ZN2cv3Mat2atIfEERT_ii(ptr noundef nonnull align 8 dereferenceable(96) %87, i32 noundef %88, i32 noundef %89)
  store float %86, ptr %90, align 4, !tbaa !48
  br label %100

91:                                               ; preds = %55, %46, %37, %28
  %92 = load ptr, ptr %5, align 8, !tbaa !37
  %93 = load i32, ptr %7, align 4, !tbaa !4
  %94 = load i32, ptr %9, align 4, !tbaa !4
  %95 = call noundef nonnull align 4 dereferenceable(4) ptr @_ZN2cv3Mat2atIfEERT_ii(ptr noundef nonnull align 8 dereferenceable(96) %92, i32 noundef %93, i32 noundef %94)
  store float 0.000000e+00, ptr %95, align 4, !tbaa !48
  %96 = load ptr, ptr %6, align 8, !tbaa !37
  %97 = load i32, ptr %7, align 4, !tbaa !4
  %98 = load i32, ptr %9, align 4, !tbaa !4
  %99 = call noundef nonnull align 4 dereferenceable(4) ptr @_ZN2cv3Mat2atIfEERT_ii(ptr noundef nonnull align 8 dereferenceable(96) %96, i32 noundef %97, i32 noundef %98)
  store float 0.000000e+00, ptr %99, align 4, !tbaa !48
  br label %100

100:                                              ; preds = %91, %64
  br label %157

101:                                              ; preds = %25
  %102 = load i32, ptr %9, align 4, !tbaa !4
  %103 = sitofp i32 %102 to float
  %104 = load ptr, ptr %5, align 8, !tbaa !37
  %105 = load i32, ptr %7, align 4, !tbaa !4
  %106 = load i32, ptr %9, align 4, !tbaa !4
  %107 = call noundef nonnull align 4 dereferenceable(4) ptr @_ZN2cv3Mat2atIfEERT_ii(ptr noundef nonnull align 8 dereferenceable(96) %104, i32 noundef %105, i32 noundef %106)
  store float %103, ptr %107, align 4, !tbaa !48
  %108 = load ptr, ptr %5, align 8, !tbaa !37
  %109 = getelementptr inbounds nuw %"class.cv::Mat", ptr %108, i32 0, i32 2
  %110 = load i32, ptr %109, align 8, !tbaa !46
  %111 = load i32, ptr %7, align 4, !tbaa !4
  %112 = sub nsw i32 %110, %111
  %113 = sitofp i32 %112 to float
  %114 = load ptr, ptr %6, align 8, !tbaa !37
  %115 = load i32, ptr %7, align 4, !tbaa !4
  %116 = load i32, ptr %9, align 4, !tbaa !4
  %117 = call noundef nonnull align 4 dereferenceable(4) ptr @_ZN2cv3Mat2atIfEERT_ii(ptr noundef nonnull align 8 dereferenceable(96) %114, i32 noundef %115, i32 noundef %116)
  store float %113, ptr %117, align 4, !tbaa !48
  br label %157

118:                                              ; preds = %25
  %119 = load ptr, ptr %5, align 8, !tbaa !37
  %120 = getelementptr inbounds nuw %"class.cv::Mat", ptr %119, i32 0, i32 3
  %121 = load i32, ptr %120, align 4, !tbaa !47
  %122 = load i32, ptr %9, align 4, !tbaa !4
  %123 = sub nsw i32 %121, %122
  %124 = sitofp i32 %123 to float
  %125 = load ptr, ptr %5, align 8, !tbaa !37
  %126 = load i32, ptr %7, align 4, !tbaa !4
  %127 = load i32, ptr %9, align 4, !tbaa !4
  %128 = call noundef nonnull align 4 dereferenceable(4) ptr @_ZN2cv3Mat2atIfEERT_ii(ptr noundef nonnull align 8 dereferenceable(96) %125, i32 noundef %126, i32 noundef %127)
  store float %124, ptr %128, align 4, !tbaa !48
  %129 = load i32, ptr %7, align 4, !tbaa !4
  %130 = sitofp i32 %129 to float
  %131 = load ptr, ptr %6, align 8, !tbaa !37
  %132 = load i32, ptr %7, align 4, !tbaa !4
  %133 = load i32, ptr %9, align 4, !tbaa !4
  %134 = call noundef nonnull align 4 dereferenceable(4) ptr @_ZN2cv3Mat2atIfEERT_ii(ptr noundef nonnull align 8 dereferenceable(96) %131, i32 noundef %132, i32 noundef %133)
  store float %130, ptr %134, align 4, !tbaa !48
  br label %157

135:                                              ; preds = %25
  %136 = load ptr, ptr %5, align 8, !tbaa !37
  %137 = getelementptr inbounds nuw %"class.cv::Mat", ptr %136, i32 0, i32 3
  %138 = load i32, ptr %137, align 4, !tbaa !47
  %139 = load i32, ptr %9, align 4, !tbaa !4
  %140 = sub nsw i32 %138, %139
  %141 = sitofp i32 %140 to float
  %142 = load ptr, ptr %5, align 8, !tbaa !37
  %143 = load i32, ptr %7, align 4, !tbaa !4
  %144 = load i32, ptr %9, align 4, !tbaa !4
  %145 = call noundef nonnull align 4 dereferenceable(4) ptr @_ZN2cv3Mat2atIfEERT_ii(ptr noundef nonnull align 8 dereferenceable(96) %142, i32 noundef %143, i32 noundef %144)
  store float %141, ptr %145, align 4, !tbaa !48
  %146 = load ptr, ptr %5, align 8, !tbaa !37
  %147 = getelementptr inbounds nuw %"class.cv::Mat", ptr %146, i32 0, i32 2
  %148 = load i32, ptr %147, align 8, !tbaa !46
  %149 = load i32, ptr %7, align 4, !tbaa !4
  %150 = sub nsw i32 %148, %149
  %151 = sitofp i32 %150 to float
  %152 = load ptr, ptr %6, align 8, !tbaa !37
  %153 = load i32, ptr %7, align 4, !tbaa !4
  %154 = load i32, ptr %9, align 4, !tbaa !4
  %155 = call noundef nonnull align 4 dereferenceable(4) ptr @_ZN2cv3Mat2atIfEERT_ii(ptr noundef nonnull align 8 dereferenceable(96) %152, i32 noundef %153, i32 noundef %154)
  store float %151, ptr %155, align 4, !tbaa !48
  br label %157

156:                                              ; preds = %25
  br label %157

157:                                              ; preds = %156, %135, %118, %101, %100
  br label %158

158:                                              ; preds = %157
  %159 = load i32, ptr %9, align 4, !tbaa !4
  %160 = add nsw i32 %159, 1
  store i32 %160, ptr %9, align 4, !tbaa !4
  br label %18, !llvm.loop !50

161:                                              ; preds = %24
  br label %162

162:                                              ; preds = %161
  %163 = load i32, ptr %7, align 4, !tbaa !4
  %164 = add nsw i32 %163, 1
  store i32 %164, ptr %7, align 4, !tbaa !4
  br label %10, !llvm.loop !51

165:                                              ; preds = %16
  %166 = load ptr, ptr %4, align 8, !tbaa !45
  %167 = load i32, ptr %166, align 4, !tbaa !4
  %168 = add nsw i32 %167, 1
  %169 = srem i32 %168, 4
  %170 = load ptr, ptr %4, align 8, !tbaa !45
  store i32 %169, ptr %170, align 4, !tbaa !4
  ret void
}