; Function Attrs: mustprogress nofree norecurse nosync nounwind memory(readwrite, inaccessiblemem: none) uwtable
define hidden void @_Z10update_mapRiRN2cv3MatES2_(ptr noundef nonnull align 4 captures(none) dereferenceable(4) %0, ptr noundef nonnull readonly align 8 captures(none) dereferenceable(96) %1, ptr noundef nonnull readonly align 8 captures(none) dereferenceable(96) %2) local_unnamed_addr #5 {
  %4 = getelementptr inbounds nuw i8, ptr %1, i64 8
  %5 = load i32, ptr %4, align 8, !tbaa !59
  %6 = icmp sgt i32 %5, 0
  %.pre112 = load i32, ptr %0, align 4, !tbaa !46
  br i1 %6, label %.preheader.lr.ph, label %._crit_edge75

.preheader.lr.ph:                                 ; preds = %3
  %7 = getelementptr inbounds nuw i8, ptr %1, i64 12
  %8 = load i32, ptr %7, align 4, !tbaa !60
  %9 = icmp sgt i32 %8, 0
  %10 = getelementptr inbounds nuw i8, ptr %1, i64 16
  %11 = getelementptr inbounds nuw i8, ptr %1, i64 72
  %12 = getelementptr inbounds nuw i8, ptr %2, i64 16
  %13 = getelementptr inbounds nuw i8, ptr %2, i64 72
  %14 = sitofp i32 %8 to double
  %15 = fmul double %14, 2.500000e-01
  %16 = fmul double %14, 7.500000e-01
  %17 = uitofp nneg i32 %5 to double
  %18 = fmul double %17, 2.500000e-01
  %19 = fmul double %17, 7.500000e-01
  %20 = sitofp i32 %8 to float
  %21 = fneg float %20
  %22 = uitofp nneg i32 %5 to float
  %23 = fneg float %22
  br i1 %9, label %.preheader.us.preheader, label %._crit_edge75

.preheader.us.preheader:                          ; preds = %.preheader.lr.ph
  %wide.trip.count110 = zext nneg i32 %5 to i64
  %wide.trip.count = zext nneg i32 %8 to i64
  %wide.trip.count95 = zext nneg i32 %8 to i64
  %wide.trip.count100 = zext nneg i32 %8 to i64
  %wide.trip.count105 = zext nneg i32 %8 to i64
  br label %.preheader.us

.preheader.us:                                    ; preds = %.preheader.us.preheader, %._crit_edge.us
  %indvars.iv107 = phi i64 [ 0, %.preheader.us.preheader ], [ %indvars.iv.next108, %._crit_edge.us ]
  %24 = trunc i64 %indvars.iv107 to i32
  %25 = sub i32 %5, %24
  %26 = sitofp i32 %25 to float
  %27 = trunc nuw nsw i64 %indvars.iv107 to i32
  %28 = uitofp nneg i32 %27 to float
  %29 = uitofp nneg i32 %27 to double
  %30 = fcmp uge double %18, %29
  %31 = fcmp ule double %19, %29
  %or.cond66.us.not85 = or i1 %30, %31
  %32 = load ptr, ptr %10, align 8
  %33 = load ptr, ptr %11, align 8
  %34 = load ptr, ptr %12, align 8
  %35 = load ptr, ptr %13, align 8
  %36 = tail call float @llvm.fmuladd.f32(float %23, float 2.500000e-01, float %28)
  %37 = tail call float @llvm.fmuladd.f32(float %36, float 2.000000e+00, float 5.000000e-01)
  switch i32 %.pre112, label %._crit_edge.us [
    i32 0, label %.lr.ph.split.us.us.preheader
    i32 1, label %.lr.ph.split.us68.us
    i32 2, label %.lr.ph.split.us70.us
    i32 3, label %.lr.ph.split.us72.us
  ]

.lr.ph.split.us.us.preheader:                     ; preds = %.preheader.us
  %38 = load i64, ptr %33, align 8, !tbaa !10
  %39 = mul i64 %38, %indvars.iv107
  %40 = getelementptr inbounds nuw i8, ptr %32, i64 %39
  %41 = load i64, ptr %35, align 8, !tbaa !10
  %42 = mul i64 %41, %indvars.iv107
  %43 = getelementptr inbounds nuw i8, ptr %34, i64 %42
  br label %.lr.ph.split.us.us

._crit_edge.us:                                   ; preds = %84, %72, %61, %52, %.preheader.us
  %indvars.iv.next108 = add nuw nsw i64 %indvars.iv107, 1
  %exitcond111.not = icmp eq i64 %indvars.iv.next108, %wide.trip.count110
  br i1 %exitcond111.not, label %._crit_edge75, label %.preheader.us, !llvm.loop !61

.lr.ph.split.us.us:                               ; preds = %.lr.ph.split.us.us.preheader, %52
  %indvars.iv102 = phi i64 [ %indvars.iv.next103, %52 ], [ 0, %.lr.ph.split.us.us.preheader ]
  %44 = trunc nuw nsw i64 %indvars.iv102 to i32
  %45 = uitofp nneg i32 %44 to double
  %46 = fcmp uge double %15, %45
  %47 = fcmp ule double %16, %45
  %or.cond.us.us.not83 = or i1 %46, %47
  %brmerge = select i1 %or.cond.us.us.not83, i1 true, i1 %or.cond66.us.not85
  br i1 %brmerge, label %52, label %48

48:                                               ; preds = %.lr.ph.split.us.us
  %49 = uitofp nneg i32 %44 to float
  %50 = tail call float @llvm.fmuladd.f32(float %21, float 2.500000e-01, float %49)
  %51 = tail call float @llvm.fmuladd.f32(float %50, float 2.000000e+00, float 5.000000e-01)
  br label %52

52:                                               ; preds = %.lr.ph.split.us.us, %48
  %.sink120 = phi float [ %51, %48 ], [ 0.000000e+00, %.lr.ph.split.us.us ]
  %.sink = phi float [ %37, %48 ], [ 0.000000e+00, %.lr.ph.split.us.us ]
  %53 = getelementptr inbounds nuw float, ptr %40, i64 %indvars.iv102
  store float %.sink120, ptr %53, align 4, !tbaa !63
  %54 = getelementptr inbounds nuw float, ptr %43, i64 %indvars.iv102
  store float %.sink, ptr %54, align 4, !tbaa !63
  %indvars.iv.next103 = add nuw nsw i64 %indvars.iv102, 1
  %exitcond106.not = icmp eq i64 %indvars.iv.next103, %wide.trip.count105
  br i1 %exitcond106.not, label %._crit_edge.us, label %.lr.ph.split.us.us, !llvm.loop !65

.lr.ph.split.us68.us:                             ; preds = %.preheader.us
  %55 = load i64, ptr %33, align 8, !tbaa !10
  %56 = mul i64 %55, %indvars.iv107
  %57 = getelementptr inbounds nuw i8, ptr %32, i64 %56
  %58 = load i64, ptr %35, align 8, !tbaa !10
  %59 = mul i64 %58, %indvars.iv107
  %60 = getelementptr inbounds nuw i8, ptr %34, i64 %59
  br label %61

61:                                               ; preds = %61, %.lr.ph.split.us68.us
  %indvars.iv97 = phi i64 [ %indvars.iv.next98, %61 ], [ 0, %.lr.ph.split.us68.us ]
  %62 = trunc nuw nsw i64 %indvars.iv97 to i32
  %63 = uitofp nneg i32 %62 to float
  %64 = getelementptr inbounds nuw float, ptr %57, i64 %indvars.iv97
  store float %63, ptr %64, align 4, !tbaa !63
  %65 = getelementptr inbounds nuw float, ptr %60, i64 %indvars.iv97
  store float %26, ptr %65, align 4, !tbaa !63
  %indvars.iv.next98 = add nuw nsw i64 %indvars.iv97, 1
  %exitcond101.not = icmp eq i64 %indvars.iv.next98, %wide.trip.count100
  br i1 %exitcond101.not, label %._crit_edge.us, label %61, !llvm.loop !65

.lr.ph.split.us70.us:                             ; preds = %.preheader.us
  %66 = load i64, ptr %33, align 8, !tbaa !10
  %67 = mul i64 %66, %indvars.iv107
  %68 = getelementptr inbounds nuw i8, ptr %32, i64 %67
  %69 = load i64, ptr %35, align 8, !tbaa !10
  %70 = mul i64 %69, %indvars.iv107
  %71 = getelementptr inbounds nuw i8, ptr %34, i64 %70
  br label %72

72:                                               ; preds = %72, %.lr.ph.split.us70.us
  %indvars.iv92 = phi i64 [ %indvars.iv.next93, %72 ], [ 0, %.lr.ph.split.us70.us ]
  %73 = trunc i64 %indvars.iv92 to i32
  %74 = sub i32 %8, %73
  %75 = sitofp i32 %74 to float
  %76 = getelementptr inbounds nuw float, ptr %68, i64 %indvars.iv92
  store float %75, ptr %76, align 4, !tbaa !63
  %77 = getelementptr inbounds nuw float, ptr %71, i64 %indvars.iv92
  store float %28, ptr %77, align 4, !tbaa !63
  %indvars.iv.next93 = add nuw nsw i64 %indvars.iv92, 1
  %exitcond96.not = icmp eq i64 %indvars.iv.next93, %wide.trip.count95
  br i1 %exitcond96.not, label %._crit_edge.us, label %72, !llvm.loop !65

.lr.ph.split.us72.us:                             ; preds = %.preheader.us
  %78 = load i64, ptr %33, align 8, !tbaa !10
  %79 = mul i64 %78, %indvars.iv107
  %80 = getelementptr inbounds nuw i8, ptr %32, i64 %79
  %81 = load i64, ptr %35, align 8, !tbaa !10
  %82 = mul i64 %81, %indvars.iv107
  %83 = getelementptr inbounds nuw i8, ptr %34, i64 %82
  br label %84

84:                                               ; preds = %84, %.lr.ph.split.us72.us
  %indvars.iv = phi i64 [ %indvars.iv.next, %84 ], [ 0, %.lr.ph.split.us72.us ]
  %85 = trunc i64 %indvars.iv to i32
  %86 = sub i32 %8, %85
  %87 = sitofp i32 %86 to float
  %88 = getelementptr inbounds nuw float, ptr %80, i64 %indvars.iv
  store float %87, ptr %88, align 4, !tbaa !63
  %89 = getelementptr inbounds nuw float, ptr %83, i64 %indvars.iv
  store float %26, ptr %89, align 4, !tbaa !63
  %indvars.iv.next = add nuw nsw i64 %indvars.iv, 1
  %exitcond.not = icmp eq i64 %indvars.iv.next, %wide.trip.count
  br i1 %exitcond.not, label %._crit_edge.us, label %84, !llvm.loop !65

._crit_edge75:                                    ; preds = %._crit_edge.us, %.preheader.lr.ph, %3
  %90 = add nsw i32 %.pre112, 1
  %91 = srem i32 %90, 4
  store i32 %91, ptr %0, align 4, !tbaa !46
  ret void
}